target datalayout = "e-m:e-p270:32:32-p271:32:32-p272:64:64-i64:64-i128:128-f80:128-n8:16:32:64-S128"
target triple = "x86_64-pc-linux-gnu"

@ps_modules = internal global <{ ptr, ptr, [31 x ptr] }> <{ ptr @ps_mod_files, ptr @ps_mod_user, [31 x ptr] zeroinitializer }>, align 16

; Function Attrs: nounwind uwtable
define i32 @php_session_register_module(ptr noundef %0) #0 {
  %2 = alloca ptr, align 8
  %3 = alloca i32, align 4
  %4 = alloca i32, align 4
  store ptr %0, ptr %2, align 8
  store i32 -1, ptr %3, align 4
  store i32 0, ptr %4, align 4
  br label %5

5:                                                ; preds = %20, %1
  %6 = load i32, ptr %4, align 4
  %7 = icmp slt i32 %6, 32
  br i1 %7, label %8, label %23

8:                                                ; preds = %5
  %9 = load i32, ptr %4, align 4
  %10 = sext i32 %9 to i64
  %11 = getelementptr inbounds [33 x ptr], ptr @ps_modules, i64 0, i64 %10
  %12 = load ptr, ptr %11, align 8
  %13 = icmp ne ptr %12, null
  br i1 %13, label %19, label %14

14:                                               ; preds = %8
  %15 = load ptr, ptr %2, align 8
  %16 = load i32, ptr %4, align 4
  %17 = sext i32 %16 to i64
  %18 = getelementptr inbounds [33 x ptr], ptr @ps_modules, i64 0, i64 %17
  store ptr %15, ptr %18, align 8
  store i32 0, ptr %3, align 4
  br label %23

19:                                               ; preds = %8
  br label %20

20:                                               ; preds = %19
  %21 = load i32, ptr %4, align 4
  %22 = add nsw i32 %21, 1
  store i32 %22, ptr %4, align 4
  br label %5

23:                                               ; preds = %14, %5
  %24 = load i32, ptr %3, align 4
  ret i32 %24
}