; Function Attrs: nofree norecurse nosync nounwind memory(readwrite, argmem: none, inaccessiblemem: none) uwtable
define noundef i32 @php_session_register_module(ptr noundef %0) local_unnamed_addr #5 {
  br label %3

2:                                                ; preds = %3
  %indvars.iv.next = add nuw nsw i64 %indvars.iv, 1
  %exitcond.not = icmp eq i64 %indvars.iv.next, 32
  br i1 %exitcond.not, label %.loopexit, label %3

3:                                                ; preds = %1, %2
  %indvars.iv = phi i64 [ 0, %1 ], [ %indvars.iv.next, %2 ]
  %4 = getelementptr inbounds [33 x ptr], ptr @ps_modules, i64 0, i64 %indvars.iv
  %5 = load ptr, ptr %4, align 8
  %.not = icmp eq ptr %5, null
  br i1 %.not, label %6, label %2

6:                                                ; preds = %3
  %7 = getelementptr inbounds [33 x ptr], ptr @ps_modules, i64 0, i64 %indvars.iv
  store ptr %0, ptr %7, align 8
  br label %.loopexit

.loopexit:                                        ; preds = %2, %6
  %.05 = phi i32 [ 0, %6 ], [ -1, %2 ]
  ret i32 %.05
}